; Function Attrs: mustprogress uwtable
define void @_ZN6casadi13IdasInterfaceC2ERKNSt7__cxx1112basic_stringIcSt11char_traitsIcESaIcEEERKNS_8FunctionEdRKSt6vectorIdSaIdEE(ptr noundef nonnull align 8 dereferenceable(2272) %0, ptr noundef nonnull align 8 dereferenceable(32) %1, ptr noundef nonnull align 8 dereferenceable(8) %2, double noundef %3, ptr noundef nonnull align 8 dereferenceable(24) %4) unnamed_addr #4 align 2 {
  tail call void @_ZN6casadi17SundialsInterfaceC2ERKNSt7__cxx1112basic_stringIcSt11char_traitsIcESaIcEEERKNS_8FunctionEdRKSt6vectorIdSaIdEE(ptr noundef nonnull align 8 dereferenceable(2184) %0, ptr noundef nonnull align 8 dereferenceable(32) %1, ptr noundef nonnull align 8 dereferenceable(8) %2, double noundef %3, ptr noundef nonnull align 8 dereferenceable(24) %4)
  store ptr getelementptr inbounds nuw inrange(-16, 1040) (i8, ptr @_ZTVN6casadi13IdasInterfaceE, i64 16), ptr %0, align 8, !tbaa !32
  %6 = getelementptr inbounds nuw i8, ptr %0, i64 1528
  store ptr getelementptr inbounds nuw inrange(-16, 8) (i8, ptr @_ZTVN6casadi13IdasInterfaceE, i64 1072), ptr %6, align 8, !tbaa !32
  %7 = getelementptr inbounds nuw i8, ptr %0, i64 2192
  tail call void @llvm.memset.p0.i64(ptr noundef nonnull align 8 dereferenceable(24) %7, i8 0, i64 24, i1 false)
  %8 = getelementptr inbounds nuw i8, ptr %0, i64 2224
  tail call void @llvm.memset.p0.i64(ptr noundef nonnull align 8 dereferenceable(48) %8, i8 0, i64 48, i1 false)
  ret void
}